target datalayout = "e-m:e-p270:32:32-p271:32:32-p272:64:64-i64:64-i128:128-f80:128-n8:16:32:64-S128"
target triple = "x86_64-pc-linux-gnu"

%"class.casadi::SparsityInternal" = type { %"class.casadi::SharedObjectInternal", %"class.std::vector", ptr }
%"class.casadi::SharedObjectInternal" = type { ptr, i64, ptr }
%"class.std::vector" = type { %"struct.std::_Vector_base" }
%"struct.std::_Vector_base" = type { %"struct.std::_Vector_base<long long, std::allocator<long long>>::_Vector_impl" }
%"struct.std::_Vector_base<long long, std::allocator<long long>>::_Vector_impl" = type { %"struct.std::_Vector_base<long long, std::allocator<long long>>::_Vector_impl_data" }
%"struct.std::_Vector_base<long long, std::allocator<long long>>::_Vector_impl_data" = type { ptr, ptr, ptr }

; Function Attrs: mustprogress nounwind uwtable
define linkonce_odr hidden noundef nonnull align 8 dereferenceable(8) ptr @_ZNKSt6vectorIxSaIxEEixEm(ptr noundef nonnull align 8 dereferenceable(24) %0, i64 noundef %1) #4 comdat align 2 {
  %3 = alloca ptr, align 8
  %4 = alloca i64, align 8
  store ptr %0, ptr %3, align 8
  store i64 %1, ptr %4, align 8
  %5 = load ptr, ptr %3, align 8
  %6 = getelementptr inbounds %"struct.std::_Vector_base", ptr %5, i32 0, i32 0
  %7 = getelementptr inbounds %"struct.std::_Vector_base<long long, std::allocator<long long>>::_Vector_impl_data", ptr %6, i32 0, i32 0
  %8 = load ptr, ptr %7, align 8
  %9 = load i64, ptr %4, align 8
  %10 = getelementptr inbounds i64, ptr %8, i64 %9
  ret ptr %10
}

; Function Attrs: mustprogress nounwind uwtable
define linkonce_odr hidden noundef i64 @_ZNK6casadi16SparsityInternal5size1Ev(ptr noundef nonnull align 8 dereferenceable(56) %0) #4 comdat align 2 {
  %2 = alloca ptr, align 8
  store ptr %0, ptr %2, align 8
  %3 = load ptr, ptr %2, align 8
  %4 = getelementptr inbounds %"class.casadi::SparsityInternal", ptr %3, i32 0, i32 1
  %5 = call noundef nonnull align 8 dereferenceable(8) ptr @_ZNKSt6vectorIxSaIxEEixEm(ptr noundef nonnull align 8 dereferenceable(24) %4, i64 noundef 0) #3
  %6 = load i64, ptr %5, align 8
  ret i64 %6
}

; Function Attrs: mustprogress nounwind uwtable
define linkonce_odr hidden noundef i64 @_ZNK6casadi16SparsityInternal5size2Ev(ptr noundef nonnull align 8 dereferenceable(56) %0) #4 comdat align 2 {
  %2 = alloca ptr, align 8
  store ptr %0, ptr %2, align 8
  %3 = load ptr, ptr %2, align 8
  %4 = getelementptr inbounds %"class.casadi::SparsityInternal", ptr %3, i32 0, i32 1
  %5 = call noundef nonnull align 8 dereferenceable(8) ptr @_ZNKSt6vectorIxSaIxEEixEm(ptr noundef nonnull align 8 dereferenceable(24) %4, i64 noundef 1) #3
  %6 = load i64, ptr %5, align 8
  ret i64 %6
}

; Function Attrs: mustprogress uwtable
define noundef zeroext i1 @_ZNK6casadi16SparsityInternal8is_emptyEb(ptr noundef nonnull align 8 dereferenceable(56) %0, i1 noundef zeroext %1) #5 align 2 {
  %3 = alloca ptr, align 8
  %4 = alloca i8, align 1
  store ptr %0, ptr %3, align 8
  %5 = zext i1 %1 to i8
  store i8 %5, ptr %4, align 1
  %6 = load ptr, ptr %3, align 8
  %7 = load i8, ptr %4, align 1
  %8 = trunc i8 %7 to i1
  br i1 %8, label %9, label %17

9:                                                ; preds = %2
  %10 = call noundef i64 @_ZNK6casadi16SparsityInternal5size2Ev(ptr noundef nonnull align 8 dereferenceable(56) %6)
  %11 = icmp eq i64 %10, 0
  br i1 %11, label %12, label %15

12:                                               ; preds = %9
  %13 = call noundef i64 @_ZNK6casadi16SparsityInternal5size1Ev(ptr noundef nonnull align 8 dereferenceable(56) %6)
  %14 = icmp eq i64 %13, 0
  br label %15

15:                                               ; preds = %12, %9
  %16 = phi i1 [ false, %9 ], [ %14, %12 ]
  br label %25

17:                                               ; preds = %2
  %18 = call noundef i64 @_ZNK6casadi16SparsityInternal5size2Ev(ptr noundef nonnull align 8 dereferenceable(56) %6)
  %19 = icmp eq i64 %18, 0
  br i1 %19, label %23, label %20

20:                                               ; preds = %17
  %21 = call noundef i64 @_ZNK6casadi16SparsityInternal5size1Ev(ptr noundef nonnull align 8 dereferenceable(56) %6)
  %22 = icmp eq i64 %21, 0
  br label %23

23:                                               ; preds = %20, %17
  %24 = phi i1 [ true, %17 ], [ %22, %20 ]
  br label %25

25:                                               ; preds = %23, %15
  %26 = phi i1 [ %16, %15 ], [ %24, %23 ]
  ret i1 %26
}