; Function Attrs: mustprogress nofree norecurse nosync nounwind willreturn memory(read, inaccessiblemem: none) uwtable
define noundef zeroext i1 @_ZNK6casadi16SparsityInternal8is_emptyEb(ptr nocapture noundef nonnull readonly align 8 dereferenceable(56) %0, i1 noundef zeroext %1) local_unnamed_addr #11 align 2 {
  %3 = getelementptr inbounds i8, ptr %0, i64 24
  %4 = load ptr, ptr %3, align 8
  %5 = getelementptr inbounds i8, ptr %4, i64 8
  %6 = load i64, ptr %5, align 8
  %7 = icmp eq i64 %6, 0
  br i1 %1, label %8, label %9

8:                                                ; preds = %2
  br i1 %7, label %.sink.split, label %12

9:                                                ; preds = %2
  br i1 %7, label %12, label %.sink.split

.sink.split:                                      ; preds = %9, %8
  %10 = load i64, ptr %4, align 8
  %11 = icmp eq i64 %10, 0
  br label %12

12:                                               ; preds = %.sink.split, %9, %8
  %13 = phi i1 [ false, %8 ], [ true, %9 ], [ %11, %.sink.split ]
  ret i1 %13
}